target datalayout = "e-m:e-p270:32:32-p271:32:32-p272:64:64-i64:64-i128:128-f80:128-n8:16:32:64-S128"
target triple = "x86_64-pc-linux-gnu"

%"class.llvm::StringRef" = type { ptr, i64 }
%"class.clang::SourceLocation" = type { i32 }
%"class.clang::comments::Lexer" = type { ptr, ptr, ptr, ptr, ptr, ptr, ptr, %"class.clang::SourceLocation", i8, i8, i8, %"class.llvm::SmallString" }
%"class.llvm::SmallString" = type { %"class.llvm::SmallVector.74" }
%"class.llvm::SmallVector.74" = type { %"class.llvm::SmallVectorImpl.75", %"struct.llvm::SmallVectorStorage.79" }
%"class.llvm::SmallVectorImpl.75" = type { %"class.llvm::SmallVectorTemplateBase.76" }
%"class.llvm::SmallVectorTemplateBase.76" = type { %"class.llvm::SmallVectorTemplateCommon.77" }
%"class.llvm::SmallVectorTemplateCommon.77" = type { %"class.llvm::SmallVectorBase.78" }
%"class.llvm::SmallVectorBase.78" = type { ptr, i64, i64 }
%"struct.llvm::SmallVectorStorage.79" = type { [16 x i8] }

@.str.14 = private unnamed_addr constant [8 x i8] c"\0A\0D\\@\22&<\00", align 1
@.str.15 = private unnamed_addr constant [3 x i8] c"\0A\0D\00", align 1
@.str.16 = private unnamed_addr constant [4 x i8] c"\0A\0D\22\00", align 1

; Function Attrs: mustprogress nounwind uwtable
define linkonce_odr hidden noundef i64 @_ZNSt11char_traitsIcE6lengthEPKc(ptr noundef %0) #0 comdat align 2 {
  %2 = alloca ptr, align 8
  store ptr %0, ptr %2, align 8
  %3 = load ptr, ptr %2, align 8
  %4 = call i64 @strlen(ptr noundef %3) #11
  ret i64 %4
}

; Function Attrs: mustprogress nounwind uwtable
define linkonce_odr hidden void @_ZN4llvm9StringRefC2EPKcm(ptr noundef nonnull align 8 dereferenceable(16) %0, ptr noundef %1, i64 noundef %2) unnamed_addr #0 comdat align 2 {
  %4 = alloca ptr, align 8
  %5 = alloca ptr, align 8
  %6 = alloca i64, align 8
  store ptr %0, ptr %4, align 8
  store ptr %1, ptr %5, align 8
  store i64 %2, ptr %6, align 8
  %7 = load ptr, ptr %4, align 8
  %8 = getelementptr inbounds nuw %"class.llvm::StringRef", ptr %7, i32 0, i32 0
  %9 = load ptr, ptr %5, align 8
  store ptr %9, ptr %8, align 8
  %10 = getelementptr inbounds nuw %"class.llvm::StringRef", ptr %7, i32 0, i32 1
  %11 = load i64, ptr %6, align 8
  store i64 %11, ptr %10, align 8
  ret void
}

; Function Attrs: mustprogress nounwind uwtable
define linkonce_odr hidden void @_ZN4llvm9StringRefC2EPKc(ptr noundef nonnull align 8 dereferenceable(16) %0, ptr noundef %1) unnamed_addr #0 comdat align 2 {
  %3 = alloca ptr, align 8
  %4 = alloca ptr, align 8
  store ptr %0, ptr %3, align 8
  store ptr %1, ptr %4, align 8
  %5 = load ptr, ptr %3, align 8
  %6 = getelementptr inbounds nuw %"class.llvm::StringRef", ptr %5, i32 0, i32 0
  %7 = load ptr, ptr %4, align 8
  store ptr %7, ptr %6, align 8
  %8 = getelementptr inbounds nuw %"class.llvm::StringRef", ptr %5, i32 0, i32 1
  %9 = load ptr, ptr %4, align 8
  %10 = icmp ne ptr %9, null
  br i1 %10, label %11, label %14

11:                                               ; preds = %2
  %12 = load ptr, ptr %4, align 8
  %13 = call noundef i64 @_ZNSt11char_traitsIcE6lengthEPKc(ptr noundef %12)
  br label %15

14:                                               ; preds = %2
  br label %15

15:                                               ; preds = %14, %11
  %16 = phi i64 [ %13, %11 ], [ 0, %14 ]
  store i64 %16, ptr %8, align 8
  ret void
}

; Function Attrs: mustprogress nounwind uwtable
define dso_local noundef ptr @_ZN5clang8comments5Lexer13skipTextTokenEv(ptr noundef nonnull align 8 dereferenceable(104) %0) #0 align 2 {
  %2 = alloca ptr, align 8
  %3 = alloca ptr, align 8
  %4 = alloca ptr, align 8
  %5 = alloca %"class.llvm::StringRef", align 8
  %6 = alloca i64, align 8
  %7 = alloca %"class.llvm::StringRef", align 8
  %8 = alloca %"class.llvm::StringRef", align 8
  %9 = alloca %"class.llvm::StringRef", align 8
  %10 = alloca %"class.llvm::StringRef", align 8
  store ptr %0, ptr %3, align 8
  %11 = load ptr, ptr %3, align 8
  %12 = getelementptr inbounds nuw %"class.clang::comments::Lexer", ptr %11, i32 0, i32 5
  %13 = load ptr, ptr %12, align 8
  store ptr %13, ptr %4, align 8
  %14 = getelementptr inbounds nuw %"class.clang::comments::Lexer", ptr %11, i32 0, i32 8
  %15 = load i8, ptr %14, align 4
  %16 = trunc i8 %15 to i1
  %17 = select i1 %16, ptr @.str.14, ptr @.str.15
  call void @_ZN4llvm9StringRefC2EPKc(ptr noundef nonnull align 8 dereferenceable(16) %5, ptr noundef %17)
  br label %18

18:                                               ; preds = %74, %1
  %19 = load ptr, ptr %4, align 8
  %20 = getelementptr inbounds nuw %"class.clang::comments::Lexer", ptr %11, i32 0, i32 6
  %21 = load ptr, ptr %20, align 8
  %22 = load ptr, ptr %4, align 8
  %23 = ptrtoint ptr %21 to i64
  %24 = ptrtoint ptr %22 to i64
  %25 = sub i64 %23, %24
  call void @_ZN4llvm9StringRefC2EPKcm(ptr noundef nonnull align 8 dereferenceable(16) %7, ptr noundef %19, i64 noundef %25)
  call void @llvm.memcpy.p0.p0.i64(ptr align 8 %8, ptr align 8 %5, i64 16, i1 false)
  %26 = getelementptr inbounds nuw { ptr, i64 }, ptr %8, i32 0, i32 0
  %27 = load ptr, ptr %26, align 8
  %28 = getelementptr inbounds nuw { ptr, i64 }, ptr %8, i32 0, i32 1
  %29 = load i64, ptr %28, align 8
  %30 = call noundef i64 @_ZNK4llvm9StringRef13find_first_ofES0_m(ptr noundef nonnull align 8 dereferenceable(16) %7, ptr %27, i64 %29, i64 noundef 0)
  store i64 %30, ptr %6, align 8
  %31 = load i64, ptr %6, align 8
  %32 = icmp eq i64 %31, -1
  br i1 %32, label %33, label %36

33:                                               ; preds = %18
  %34 = getelementptr inbounds nuw %"class.clang::comments::Lexer", ptr %11, i32 0, i32 6
  %35 = load ptr, ptr %34, align 8
  store ptr %35, ptr %2, align 8
  br label %79

36:                                               ; preds = %18
  %37 = load ptr, ptr %4, align 8
  %38 = load i64, ptr %6, align 8
  %39 = getelementptr inbounds i8, ptr %37, i64 %38
  %40 = load i8, ptr %39, align 1
  %41 = sext i8 %40 to i32
  %42 = icmp eq i32 %41, 34
  br i1 %42, label %43, label %75

43:                                               ; preds = %36
  %44 = load i64, ptr %6, align 8
  %45 = add i64 %44, 1
  %46 = load ptr, ptr %4, align 8
  %47 = getelementptr inbounds i8, ptr %46, i64 %45
  store ptr %47, ptr %4, align 8
  %48 = load ptr, ptr %4, align 8
  %49 = getelementptr inbounds nuw %"class.clang::comments::Lexer", ptr %11, i32 0, i32 6
  %50 = load ptr, ptr %49, align 8
  %51 = load ptr, ptr %4, align 8
  %52 = ptrtoint ptr %50 to i64
  %53 = ptrtoint ptr %51 to i64
  %54 = sub i64 %52, %53
  call void @_ZN4llvm9StringRefC2EPKcm(ptr noundef nonnull align 8 dereferenceable(16) %9, ptr noundef %48, i64 noundef %54)
  call void @_ZN4llvm9StringRefC2EPKc(ptr noundef nonnull align 8 dereferenceable(16) %10, ptr noundef @.str.16)
  %55 = getelementptr inbounds nuw { ptr, i64 }, ptr %10, i32 0, i32 0
  %56 = load ptr, ptr %55, align 8
  %57 = getelementptr inbounds nuw { ptr, i64 }, ptr %10, i32 0, i32 1
  %58 = load i64, ptr %57, align 8
  %59 = call noundef i64 @_ZNK4llvm9StringRef13find_first_ofES0_m(ptr noundef nonnull align 8 dereferenceable(16) %9, ptr %56, i64 %58, i64 noundef 0)
  store i64 %59, ptr %6, align 8
  %60 = load i64, ptr %6, align 8
  %61 = icmp ne i64 %60, -1
  br i1 %61, label %62, label %74

62:                                               ; preds = %43
  %63 = load ptr, ptr %4, align 8
  %64 = load i64, ptr %6, align 8
  %65 = getelementptr inbounds i8, ptr %63, i64 %64
  %66 = load i8, ptr %65, align 1
  %67 = sext i8 %66 to i32
  %68 = icmp eq i32 %67, 34
  br i1 %68, label %69, label %74

69:                                               ; preds = %62
  %70 = load i64, ptr %6, align 8
  %71 = add i64 %70, 1
  %72 = load ptr, ptr %4, align 8
  %73 = getelementptr inbounds i8, ptr %72, i64 %71
  store ptr %73, ptr %4, align 8
  br label %74

74:                                               ; preds = %69, %62, %43
  br label %18

75:                                               ; preds = %36
  %76 = load ptr, ptr %4, align 8
  %77 = load i64, ptr %6, align 8
  %78 = getelementptr inbounds i8, ptr %76, i64 %77
  store ptr %78, ptr %2, align 8
  br label %79

79:                                               ; preds = %75, %33
  %80 = load ptr, ptr %2, align 8
  ret ptr %80
}