; Function Attrs: mustprogress nounwind uwtable
define dso_local noundef ptr @_ZN5clang8comments5Lexer13skipTextTokenEv(ptr nocapture noundef nonnull readonly align 8 dereferenceable(104) %0) local_unnamed_addr #0 align 2 {
  %2 = alloca %"class.llvm::StringRef", align 8
  %3 = alloca %"class.llvm::StringRef", align 8
  %4 = getelementptr inbounds nuw i8, ptr %0, i64 40
  %5 = load ptr, ptr %4, align 8
  %6 = getelementptr inbounds nuw i8, ptr %0, i64 60
  %7 = load i8, ptr %6, align 4
  %8 = trunc i8 %7 to i1
  %9 = select i1 %8, ptr @.str.14, ptr @.str.15
  %10 = select i1 %8, i64 7, i64 2
  %11 = getelementptr inbounds nuw i8, ptr %0, i64 48
  %12 = getelementptr inbounds nuw i8, ptr %2, i64 8
  %13 = load ptr, ptr %11, align 8
  %14 = ptrtoint ptr %13 to i64
  %15 = ptrtoint ptr %5 to i64
  %16 = sub i64 %14, %15
  store ptr %5, ptr %2, align 8
  store i64 %16, ptr %12, align 8
  %17 = call noundef i64 @_ZNK4llvm9StringRef13find_first_ofES0_m(ptr noundef nonnull align 8 dereferenceable(16) %2, ptr nonnull %9, i64 %10, i64 noundef 0) #18
  %18 = icmp eq i64 %17, -1
  br i1 %18, label %._crit_edge, label %.lr.ph

.lr.ph:                                           ; preds = %1
  %19 = getelementptr inbounds nuw i8, ptr %3, i64 8
  br label %21

._crit_edge:                                      ; preds = %39, %1
  %20 = load ptr, ptr %11, align 8
  br label %.loopexit

21:                                               ; preds = %.lr.ph, %39
  %22 = phi i64 [ %17, %.lr.ph ], [ %43, %39 ]
  %.01725 = phi ptr [ %5, %.lr.ph ], [ %.1, %39 ]
  %23 = getelementptr inbounds i8, ptr %.01725, i64 %22
  %24 = load i8, ptr %23, align 1
  %25 = icmp eq i8 %24, 34
  br i1 %25, label %26, label %.loopexit.loopexit

26:                                               ; preds = %21
  %27 = add nuw i64 %22, 1
  %28 = getelementptr inbounds i8, ptr %.01725, i64 %27
  %29 = load ptr, ptr %11, align 8
  %30 = ptrtoint ptr %29 to i64
  %31 = ptrtoint ptr %28 to i64
  %32 = sub i64 %30, %31
  store ptr %28, ptr %3, align 8
  store i64 %32, ptr %19, align 8
  %33 = call noundef i64 @_ZNK4llvm9StringRef13find_first_ofES0_m(ptr noundef nonnull align 8 dereferenceable(16) %3, ptr nonnull @.str.16, i64 3, i64 noundef 0) #18
  %.not = icmp eq i64 %33, -1
  br i1 %.not, label %39, label %34

34:                                               ; preds = %26
  %35 = getelementptr inbounds i8, ptr %28, i64 %33
  %36 = load i8, ptr %35, align 1
  %37 = icmp eq i8 %36, 34
  %38 = getelementptr i8, ptr %35, i64 1
  %spec.select = select i1 %37, ptr %38, ptr %28
  %.pre = ptrtoint ptr %spec.select to i64
  br label %39

39:                                               ; preds = %34, %26
  %.pre-phi = phi i64 [ %.pre, %34 ], [ %31, %26 ]
  %.1 = phi ptr [ %spec.select, %34 ], [ %28, %26 ]
  %40 = load ptr, ptr %11, align 8
  %41 = ptrtoint ptr %40 to i64
  %42 = sub i64 %41, %.pre-phi
  store ptr %.1, ptr %2, align 8
  store i64 %42, ptr %12, align 8
  %43 = call noundef i64 @_ZNK4llvm9StringRef13find_first_ofES0_m(ptr noundef nonnull align 8 dereferenceable(16) %2, ptr nonnull %9, i64 %10, i64 noundef 0) #18
  %44 = icmp eq i64 %43, -1
  br i1 %44, label %._crit_edge, label %21

.loopexit.loopexit:                               ; preds = %21
  %45 = getelementptr inbounds i8, ptr %.01725, i64 %22
  br label %.loopexit

.loopexit:                                        ; preds = %.loopexit.loopexit, %._crit_edge
  %.0 = phi ptr [ %20, %._crit_edge ], [ %45, %.loopexit.loopexit ]
  ret ptr %.0
}